target datalayout = "e-m:e-p270:32:32-p271:32:32-p272:64:64-i64:64-i128:128-f80:128-n8:16:32:64-S128"
target triple = "x86_64-pc-linux-gnu"

%struct.H5VL_loc_params_t = type { i32, i32, %union.anon }
%union.anon = type { %struct.H5VL_loc_by_idx }
%struct.H5VL_loc_by_idx = type { ptr, i32, i32, i64, i64 }
%struct.H5VL_object_get_args_t = type { i32, %union.anon.9 }
%union.anon.9 = type { %struct.anon.11 }
%struct.anon.11 = type { i64, ptr, ptr }
%struct.anon.13 = type { i32, ptr }

@H5_libinit_g = external global i8, align 1
@H5_libterm_g = external global i8, align 1
@.str = private unnamed_addr constant [97 x i8] c"generated/home/dtcxzyw/WorkSpace/Projects/compilers/llvm-opt-benchmark/bench/hdf5/hdf5/src/H5O.c\00", align 1
@H5E_FUNC_g = external global i64, align 8
@H5E_CANTINIT_g = external global i64, align 8
@.str.1 = private unnamed_addr constant [30 x i8] c"library initialization failed\00", align 1
@H5E_CANTSET_g = external global i64, align 8
@.str.2 = private unnamed_addr constant [22 x i8] c"can't set API context\00", align 1
@H5E_OHDR_g = external global i64, align 8
@H5E_ARGS_g = external global i64, align 8
@H5E_BADVALUE_g = external global i64, align 8
@H5E_BADTYPE_g = external global i64, align 8
@.str.21 = private unnamed_addr constant [28 x i8] c"invalid location identifier\00", align 1
@H5P_LST_DATASET_XFER_ID_g = external global i64, align 8
@H5E_CANTGET_g = external global i64, align 8
@__func__.H5Oget_info3 = private unnamed_addr constant [13 x i8] c"H5Oget_info3\00", align 1
@.str.52 = private unnamed_addr constant [31 x i8] c"oinfo parameter cannot be NULL\00", align 1
@.str.53 = private unnamed_addr constant [15 x i8] c"invalid fields\00", align 1
@.str.54 = private unnamed_addr constant [37 x i8] c"can't get data model info for object\00", align 1

; Function Attrs: nounwind uwtable
define i32 @H5Oget_info3(i64 noundef %0, ptr noundef %1, i32 noundef %2) #0 {
  %4 = alloca i64, align 8
  %5 = alloca ptr, align 8
  %6 = alloca i32, align 4
  %7 = alloca ptr, align 8
  %8 = alloca %struct.H5VL_object_get_args_t, align 8
  %9 = alloca %struct.H5VL_loc_params_t, align 8
  %10 = alloca i32, align 4
  %11 = alloca i8, align 1
  %12 = alloca i8, align 1
  store i64 %0, ptr %4, align 8
  store ptr %1, ptr %5, align 8
  store i32 %2, ptr %6, align 4
  store i32 0, ptr %10, align 4
  store i8 0, ptr %11, align 1
  store i8 0, ptr %12, align 1
  %13 = load i8, ptr @H5_libinit_g, align 1
  %14 = trunc i8 %13 to i1
  br i1 %14, label %19, label %15

15:                                               ; preds = %3
  %16 = load i8, ptr @H5_libterm_g, align 1
  %17 = trunc i8 %16 to i1
  %18 = xor i1 %17, true
  br label %19

19:                                               ; preds = %15, %3
  %20 = phi i1 [ false, %3 ], [ %18, %15 ]
  %21 = xor i1 %20, true
  %22 = xor i1 %21, true
  %23 = zext i1 %22 to i32
  %24 = sext i32 %23 to i64
  %25 = icmp ne i64 %24, 0
  br i1 %25, label %26, label %50

26:                                               ; preds = %19
  %27 = call i32 @H5_init_library()
  %28 = icmp slt i32 %27, 0
  %29 = xor i1 %28, true
  %30 = xor i1 %29, true
  %31 = zext i1 %30 to i32
  %32 = sext i32 %31 to i64
  %33 = icmp ne i64 %32, 0
  br i1 %33, label %34, label %49

34:                                               ; preds = %26
  br label %35

35:                                               ; preds = %34
  br label %36

36:                                               ; preds = %35
  br label %37

37:                                               ; preds = %36
  %38 = load i64, ptr @H5E_FUNC_g, align 8
  %39 = load i64, ptr @H5E_CANTINIT_g, align 8
  %40 = call i32 (ptr, ptr, i32, i64, i64, ptr, ...) @H5E_printf_stack(ptr noundef @.str, ptr noundef @__func__.H5Oget_info3, i32 noundef 1063, i64 noundef %38, i64 noundef %39, ptr noundef @.str.1)
  br label %41

41:                                               ; preds = %37
  store i8 1, ptr %12, align 1
  %42 = load i8, ptr %12, align 1
  %43 = trunc i8 %42 to i1
  %44 = zext i1 %43 to i8
  store i8 %44, ptr %12, align 1
  br label %45

45:                                               ; preds = %41
  br label %46

46:                                               ; preds = %45
  store i32 -1, ptr %10, align 4
  br label %163

47:                                               ; No predecessors!
  br label %48

48:                                               ; preds = %47
  br label %49

49:                                               ; preds = %48, %26
  br label %50

50:                                               ; preds = %49, %19
  %51 = call i32 @H5CX_push()
  %52 = icmp slt i32 %51, 0
  %53 = xor i1 %52, true
  %54 = xor i1 %53, true
  %55 = zext i1 %54 to i32
  %56 = sext i32 %55 to i64
  %57 = icmp ne i64 %56, 0
  br i1 %57, label %58, label %73

58:                                               ; preds = %50
  br label %59

59:                                               ; preds = %58
  br label %60

60:                                               ; preds = %59
  br label %61

61:                                               ; preds = %60
  %62 = load i64, ptr @H5E_FUNC_g, align 8
  %63 = load i64, ptr @H5E_CANTSET_g, align 8
  %64 = call i32 (ptr, ptr, i32, i64, i64, ptr, ...) @H5E_printf_stack(ptr noundef @.str, ptr noundef @__func__.H5Oget_info3, i32 noundef 1063, i64 noundef %62, i64 noundef %63, ptr noundef @.str.2)
  br label %65

65:                                               ; preds = %61
  store i8 1, ptr %12, align 1
  %66 = load i8, ptr %12, align 1
  %67 = trunc i8 %66 to i1
  %68 = zext i1 %67 to i8
  store i8 %68, ptr %12, align 1
  br label %69

69:                                               ; preds = %65
  br label %70

70:                                               ; preds = %69
  store i32 -1, ptr %10, align 4
  br label %163

71:                                               ; No predecessors!
  br label %72

72:                                               ; preds = %71
  br label %74

73:                                               ; preds = %50
  store i8 1, ptr %11, align 1
  br label %74

74:                                               ; preds = %73, %72
  %75 = call i32 @H5E_clear_stack()
  %76 = load ptr, ptr %5, align 8
  %77 = icmp ne ptr %76, null
  br i1 %77, label %93, label %78

78:                                               ; preds = %74
  br label %79

79:                                               ; preds = %78
  br label %80

80:                                               ; preds = %79
  br label %81

81:                                               ; preds = %80
  %82 = load i64, ptr @H5E_ARGS_g, align 8
  %83 = load i64, ptr @H5E_BADVALUE_g, align 8
  %84 = call i32 (ptr, ptr, i32, i64, i64, ptr, ...) @H5E_printf_stack(ptr noundef @.str, ptr noundef @__func__.H5Oget_info3, i32 noundef 1067, i64 noundef %82, i64 noundef %83, ptr noundef @.str.52)
  br label %85

85:                                               ; preds = %81
  store i8 1, ptr %12, align 1
  %86 = load i8, ptr %12, align 1
  %87 = trunc i8 %86 to i1
  %88 = zext i1 %87 to i8
  store i8 %88, ptr %12, align 1
  br label %89

89:                                               ; preds = %85
  br label %90

90:                                               ; preds = %89
  store i32 -1, ptr %10, align 4
  br label %163

91:                                               ; No predecessors!
  br label %92

92:                                               ; preds = %91
  br label %93

93:                                               ; preds = %92, %74
  %94 = load i32, ptr %6, align 4
  %95 = and i32 %94, -32
  %96 = icmp ne i32 %95, 0
  br i1 %96, label %97, label %112

97:                                               ; preds = %93
  br label %98

98:                                               ; preds = %97
  br label %99

99:                                               ; preds = %98
  br label %100

100:                                              ; preds = %99
  %101 = load i64, ptr @H5E_ARGS_g, align 8
  %102 = load i64, ptr @H5E_BADVALUE_g, align 8
  %103 = call i32 (ptr, ptr, i32, i64, i64, ptr, ...) @H5E_printf_stack(ptr noundef @.str, ptr noundef @__func__.H5Oget_info3, i32 noundef 1069, i64 noundef %101, i64 noundef %102, ptr noundef @.str.53)
  br label %104

104:                                              ; preds = %100
  store i8 1, ptr %12, align 1
  %105 = load i8, ptr %12, align 1
  %106 = trunc i8 %105 to i1
  %107 = zext i1 %106 to i8
  store i8 %107, ptr %12, align 1
  br label %108

108:                                              ; preds = %104
  br label %109

109:                                              ; preds = %108
  store i32 -1, ptr %10, align 4
  br label %163

110:                                              ; No predecessors!
  br label %111

111:                                              ; preds = %110
  br label %112

112:                                              ; preds = %111, %93
  %113 = getelementptr inbounds %struct.H5VL_loc_params_t, ptr %9, i32 0, i32 1
  store i32 0, ptr %113, align 4
  %114 = load i64, ptr %4, align 8
  %115 = call i32 @H5I_get_type(i64 noundef %114)
  %116 = getelementptr inbounds %struct.H5VL_loc_params_t, ptr %9, i32 0, i32 0
  store i32 %115, ptr %116, align 8
  %117 = load i64, ptr %4, align 8
  %118 = call ptr @H5VL_vol_object(i64 noundef %117)
  store ptr %118, ptr %7, align 8
  %119 = icmp eq ptr null, %118
  br i1 %119, label %120, label %135

120:                                              ; preds = %112
  br label %121

121:                                              ; preds = %120
  br label %122

122:                                              ; preds = %121
  br label %123

123:                                              ; preds = %122
  %124 = load i64, ptr @H5E_ARGS_g, align 8
  %125 = load i64, ptr @H5E_BADTYPE_g, align 8
  %126 = call i32 (ptr, ptr, i32, i64, i64, ptr, ...) @H5E_printf_stack(ptr noundef @.str, ptr noundef @__func__.H5Oget_info3, i32 noundef 1077, i64 noundef %124, i64 noundef %125, ptr noundef @.str.21)
  br label %127

127:                                              ; preds = %123
  store i8 1, ptr %12, align 1
  %128 = load i8, ptr %12, align 1
  %129 = trunc i8 %128 to i1
  %130 = zext i1 %129 to i8
  store i8 %130, ptr %12, align 1
  br label %131

131:                                              ; preds = %127
  br label %132

132:                                              ; preds = %131
  store i32 -1, ptr %10, align 4
  br label %163

133:                                              ; No predecessors!
  br label %134

134:                                              ; preds = %133
  br label %135

135:                                              ; preds = %134, %112
  %136 = getelementptr inbounds %struct.H5VL_object_get_args_t, ptr %8, i32 0, i32 0
  store i32 3, ptr %136, align 8
  %137 = load ptr, ptr %5, align 8
  %138 = getelementptr inbounds %struct.H5VL_object_get_args_t, ptr %8, i32 0, i32 1
  %139 = getelementptr inbounds %struct.anon.13, ptr %138, i32 0, i32 1
  store ptr %137, ptr %139, align 8
  %140 = load i32, ptr %6, align 4
  %141 = getelementptr inbounds %struct.H5VL_object_get_args_t, ptr %8, i32 0, i32 1
  %142 = getelementptr inbounds %struct.anon.13, ptr %141, i32 0, i32 0
  store i32 %140, ptr %142, align 8
  %143 = load ptr, ptr %7, align 8
  %144 = load i64, ptr @H5P_LST_DATASET_XFER_ID_g, align 8
  %145 = call i32 @H5VL_object_get(ptr noundef %143, ptr noundef %9, ptr noundef %8, i64 noundef %144, ptr noundef null)
  %146 = icmp slt i32 %145, 0
  br i1 %146, label %147, label %162

147:                                              ; preds = %135
  br label %148

148:                                              ; preds = %147
  br label %149

149:                                              ; preds = %148
  br label %150

150:                                              ; preds = %149
  %151 = load i64, ptr @H5E_OHDR_g, align 8
  %152 = load i64, ptr @H5E_CANTGET_g, align 8
  %153 = call i32 (ptr, ptr, i32, i64, i64, ptr, ...) @H5E_printf_stack(ptr noundef @.str, ptr noundef @__func__.H5Oget_info3, i32 noundef 1086, i64 noundef %151, i64 noundef %152, ptr noundef @.str.54)
  br label %154

154:                                              ; preds = %150
  store i8 1, ptr %12, align 1
  %155 = load i8, ptr %12, align 1
  %156 = trunc i8 %155 to i1
  %157 = zext i1 %156 to i8
  store i8 %157, ptr %12, align 1
  br label %158

158:                                              ; preds = %154
  br label %159

159:                                              ; preds = %158
  store i32 -1, ptr %10, align 4
  br label %163

160:                                              ; No predecessors!
  br label %161

161:                                              ; preds = %160
  br label %162

162:                                              ; preds = %161, %135
  br label %163

163:                                              ; preds = %162, %159, %132, %109, %90, %70, %46
  %164 = load i8, ptr %11, align 1
  %165 = trunc i8 %164 to i1
  %166 = xor i1 %165, true
  %167 = xor i1 %166, true
  %168 = zext i1 %167 to i32
  %169 = sext i32 %168 to i64
  %170 = icmp ne i64 %169, 0
  br i1 %170, label %171, label %173

171:                                              ; preds = %163
  %172 = call i32 @H5CX_pop(i1 noundef zeroext true)
  store i8 0, ptr %11, align 1
  br label %173

173:                                              ; preds = %171, %163
  %174 = load i8, ptr %12, align 1
  %175 = trunc i8 %174 to i1
  %176 = xor i1 %175, true
  %177 = xor i1 %176, true
  %178 = zext i1 %177 to i32
  %179 = sext i32 %178 to i64
  %180 = icmp ne i64 %179, 0
  br i1 %180, label %181, label %183

181:                                              ; preds = %173
  %182 = call i32 @H5E_dump_api_stack()
  br label %183

183:                                              ; preds = %181, %173
  %184 = load i32, ptr %10, align 4
  ret i32 %184
}