; Function Attrs: nounwind uwtable
define range(i32 -1, 1) i32 @H5Oget_info3(i64 noundef %0, ptr noundef %1, i32 noundef %2) local_unnamed_addr #0 {
  %4 = alloca %struct.H5VL_object_get_args_t, align 8
  %5 = alloca %struct.H5VL_loc_params_t, align 8
  %6 = load i8, ptr @H5_libinit_g, align 1
  %7 = trunc i8 %6 to i1
  %8 = load i8, ptr @H5_libterm_g, align 1
  %9 = trunc i8 %8 to i1
  %10 = select i1 %7, i1 true, i1 %9
  br i1 %10, label %18, label %11

11:                                               ; preds = %3
  %12 = tail call i32 @H5_init_library() #4
  %13 = icmp slt i32 %12, 0
  br i1 %13, label %14, label %18

14:                                               ; preds = %11
  %15 = load i64, ptr @H5E_FUNC_g, align 8
  %16 = load i64, ptr @H5E_CANTINIT_g, align 8
  %17 = tail call i32 (ptr, ptr, i32, i64, i64, ptr, ...) @H5E_printf_stack(ptr noundef nonnull @.str, ptr noundef nonnull @__func__.H5Oget_info3, i32 noundef 1063, i64 noundef %15, i64 noundef %16, ptr noundef nonnull @.str.1) #4
  br label %.thread28

18:                                               ; preds = %11, %3
  %19 = tail call i32 @H5CX_push() #4
  %20 = icmp slt i32 %19, 0
  br i1 %20, label %21, label %25

21:                                               ; preds = %18
  %22 = load i64, ptr @H5E_FUNC_g, align 8
  %23 = load i64, ptr @H5E_CANTSET_g, align 8
  %24 = tail call i32 (ptr, ptr, i32, i64, i64, ptr, ...) @H5E_printf_stack(ptr noundef nonnull @.str, ptr noundef nonnull @__func__.H5Oget_info3, i32 noundef 1063, i64 noundef %22, i64 noundef %23, ptr noundef nonnull @.str.2) #4
  br label %.thread28

25:                                               ; preds = %18
  %26 = tail call i32 @H5E_clear_stack() #4
  %.not = icmp eq ptr %1, null
  br i1 %.not, label %27, label %31

27:                                               ; preds = %25
  %28 = load i64, ptr @H5E_ARGS_g, align 8
  %29 = load i64, ptr @H5E_BADVALUE_g, align 8
  %30 = tail call i32 (ptr, ptr, i32, i64, i64, ptr, ...) @H5E_printf_stack(ptr noundef nonnull @.str, ptr noundef nonnull @__func__.H5Oget_info3, i32 noundef 1067, i64 noundef %28, i64 noundef %29, ptr noundef nonnull @.str.52) #4
  br label %.thread34

31:                                               ; preds = %25
  %.not19 = icmp ult i32 %2, 32
  br i1 %.not19, label %36, label %32

32:                                               ; preds = %31
  %33 = load i64, ptr @H5E_ARGS_g, align 8
  %34 = load i64, ptr @H5E_BADVALUE_g, align 8
  %35 = tail call i32 (ptr, ptr, i32, i64, i64, ptr, ...) @H5E_printf_stack(ptr noundef nonnull @.str, ptr noundef nonnull @__func__.H5Oget_info3, i32 noundef 1069, i64 noundef %33, i64 noundef %34, ptr noundef nonnull @.str.53) #4
  br label %.thread34

36:                                               ; preds = %31
  %37 = getelementptr inbounds i8, ptr %5, i64 4
  store i32 0, ptr %37, align 4
  %38 = tail call i32 @H5I_get_type(i64 noundef %0) #4
  store i32 %38, ptr %5, align 8
  %39 = tail call ptr @H5VL_vol_object(i64 noundef %0) #4
  %40 = icmp eq ptr %39, null
  br i1 %40, label %41, label %45

41:                                               ; preds = %36
  %42 = load i64, ptr @H5E_ARGS_g, align 8
  %43 = load i64, ptr @H5E_BADTYPE_g, align 8
  %44 = tail call i32 (ptr, ptr, i32, i64, i64, ptr, ...) @H5E_printf_stack(ptr noundef nonnull @.str, ptr noundef nonnull @__func__.H5Oget_info3, i32 noundef 1077, i64 noundef %42, i64 noundef %43, ptr noundef nonnull @.str.21) #4
  br label %.thread34

45:                                               ; preds = %36
  store i32 3, ptr %4, align 8
  %46 = getelementptr inbounds i8, ptr %4, i64 8
  %47 = getelementptr inbounds i8, ptr %4, i64 16
  store ptr %1, ptr %47, align 8
  store i32 %2, ptr %46, align 8
  %48 = load i64, ptr @H5P_LST_DATASET_XFER_ID_g, align 8
  %49 = call i32 @H5VL_object_get(ptr noundef nonnull %39, ptr noundef nonnull %5, ptr noundef nonnull %4, i64 noundef %48, ptr noundef null) #4
  %50 = icmp slt i32 %49, 0
  br i1 %50, label %51, label %56

51:                                               ; preds = %45
  %52 = load i64, ptr @H5E_OHDR_g, align 8
  %53 = load i64, ptr @H5E_CANTGET_g, align 8
  %54 = call i32 (ptr, ptr, i32, i64, i64, ptr, ...) @H5E_printf_stack(ptr noundef nonnull @.str, ptr noundef nonnull @__func__.H5Oget_info3, i32 noundef 1086, i64 noundef %52, i64 noundef %53, ptr noundef nonnull @.str.54) #4
  br label %.thread34

.thread34:                                        ; preds = %27, %51, %41, %32
  %55 = call i32 @H5CX_pop(i1 noundef zeroext true) #4
  br label %.thread28

56:                                               ; preds = %45
  %57 = call i32 @H5CX_pop(i1 noundef zeroext true) #4
  br label %59

.thread28:                                        ; preds = %21, %14, %.thread34
  %58 = call i32 @H5E_dump_api_stack() #4
  br label %59

59:                                               ; preds = %56, %.thread28
  %.0162331 = phi i32 [ -1, %.thread28 ], [ 0, %56 ]
  ret i32 %.0162331
}